; Function Attrs: mustprogress uwtable
define void @_ZNK6icu_776NFRule11stripPrefixERNS_13UnicodeStringERKS1_RNS_13ParsePositionE(ptr noundef nonnull readonly align 8 captures(none) dereferenceable(112) %0, ptr noundef nonnull align 8 dereferenceable(64) %1, ptr noundef nonnull align 8 dereferenceable(64) %2, ptr noundef nonnull align 8 captures(none) dereferenceable(16) %3) local_unnamed_addr #0 align 2 {
  %5 = alloca i32, align 4
  %6 = getelementptr inbounds nuw i8, ptr %2, i64 8
  %7 = load i16, ptr %6, align 8, !tbaa !23
  %8 = icmp slt i16 %7, 0
  %9 = ashr i16 %7, 5
  %10 = sext i16 %9 to i32
  %11 = getelementptr inbounds nuw i8, ptr %2, i64 12
  %12 = load i32, ptr %11, align 4
  %13 = select i1 %8, i32 %12, i32 %10
  %.not = icmp eq i32 %13, 0
  br i1 %.not, label %30, label %14

14:                                               ; preds = %4
  call void @llvm.lifetime.start.p0(i64 4, ptr nonnull %5) #9
  store i32 0, ptr %5, align 4, !tbaa !31
  %15 = call noundef i32 @_ZNK6icu_776NFRule12prefixLengthERKNS_13UnicodeStringES3_R10UErrorCode(ptr noundef nonnull align 8 dereferenceable(112) %0, ptr noundef nonnull align 8 dereferenceable(64) %1, ptr noundef nonnull align 8 dereferenceable(64) %2, ptr noundef nonnull align 4 dereferenceable(4) %5)
  %16 = load i32, ptr %5, align 4, !tbaa !31
  %17 = icmp sgt i32 %16, 0
  %.not10 = icmp eq i32 %15, 0
  %or.cond = or i1 %.not10, %17
  br i1 %or.cond, label %_ZN6icu_7713UnicodeString6removeEii.exit, label %18

18:                                               ; preds = %14
  %19 = getelementptr inbounds nuw i8, ptr %3, i64 8
  %20 = load i32, ptr %19, align 8, !tbaa !57
  %21 = add nsw i32 %20, %15
  store i32 %21, ptr %19, align 8, !tbaa !57
  %22 = icmp eq i32 %15, 2147483647
  br i1 %22, label %23, label %28

23:                                               ; preds = %18
  %24 = getelementptr inbounds nuw i8, ptr %1, i64 8
  %25 = load i16, ptr %24, align 8, !tbaa !23
  %26 = and i16 %25, 1
  %.not.i.i = icmp eq i16 %26, 0
  %27 = and i16 %25, 30
  %storemerge.i.i = select i1 %.not.i.i, i16 %27, i16 2
  store i16 %storemerge.i.i, ptr %24, align 8, !tbaa !23
  br label %_ZN6icu_7713UnicodeString6removeEii.exit

28:                                               ; preds = %18
  %29 = tail call noundef nonnull align 8 dereferenceable(64) ptr @_ZN6icu_7713UnicodeString9doReplaceEiiPKDsii(ptr noundef nonnull align 8 dereferenceable(64) %1, i32 noundef 0, i32 noundef %15, ptr noundef null, i32 noundef 0, i32 noundef 0)
  br label %_ZN6icu_7713UnicodeString6removeEii.exit

_ZN6icu_7713UnicodeString6removeEii.exit:         ; preds = %28, %23, %14
  call void @llvm.lifetime.end.p0(i64 4, ptr nonnull %5) #9
  br label %30

30:                                               ; preds = %_ZN6icu_7713UnicodeString6removeEii.exit, %4
  ret void
}